target datalayout = "e-m:e-p270:32:32-p271:32:32-p272:64:64-i64:64-i128:128-f80:128-n8:16:32:64-S128"
target triple = "x86_64-pc-linux-gnu"

%"class.ue2::CharReach" = type { %"class.ue2::bitfield" }
%"class.ue2::bitfield" = type { %"struct.std::array" }
%"struct.std::array" = type { [4 x i64] }

; Function Attrs: mustprogress nounwind uwtable
define linkonce_odr dso_local noundef nonnull align 8 dereferenceable(8) ptr @_ZNSt14__array_traitsIyLm4EE6_S_refERA4_Kym(ptr noundef nonnull align 8 dereferenceable(32) %0, i64 noundef %1) #5 comdat align 2 {
  %3 = alloca ptr, align 8
  %4 = alloca i64, align 8
  store ptr %0, ptr %3, align 8
  store i64 %1, ptr %4, align 8
  %5 = load ptr, ptr %3, align 8
  %6 = load i64, ptr %4, align 8
  %7 = getelementptr inbounds nuw [4 x i64], ptr %5, i64 0, i64 %6
  ret ptr %7
}

; Function Attrs: alwaysinline mustprogress nounwind uwtable
define internal noundef i32 @_ZL5ctz64y(i64 noundef %0) #3 {
  %2 = alloca i64, align 8
  store i64 %0, ptr %2, align 8
  %3 = load i64, ptr %2, align 8
  %4 = call i64 @llvm.cttz.i64(i64 %3, i1 true)
  %5 = trunc i64 %4 to i32
  ret i32 %5
}

; Function Attrs: mustprogress nounwind uwtable
define linkonce_odr hidden noundef i64 @_ZN3ue28bitfieldILm256EE7getwordEm(i64 noundef %0) #5 comdat align 2 {
  %2 = alloca i64, align 8
  store i64 %0, ptr %2, align 8
  %3 = load i64, ptr %2, align 8
  %4 = udiv i64 %3, 64
  ret i64 %4
}

; Function Attrs: mustprogress nounwind uwtable
define linkonce_odr hidden noundef i64 @_ZN3ue28bitfieldILm256EE4sizeEv() #5 comdat align 2 {
  ret i64 256
}

; Function Attrs: mustprogress uwtable
define linkonce_odr hidden noundef i64 @_ZNK3ue28bitfieldILm256EE8word_ctzEm(ptr noundef nonnull align 8 dereferenceable(32) %0, i64 noundef %1) #0 comdat align 2 {
  %3 = alloca ptr, align 8
  %4 = alloca i64, align 8
  store ptr %0, ptr %3, align 8
  store i64 %1, ptr %4, align 8
  %5 = load ptr, ptr %3, align 8
  %6 = getelementptr inbounds nuw %"class.ue2::bitfield", ptr %5, i32 0, i32 0
  %7 = load i64, ptr %4, align 8
  %8 = call noundef nonnull align 8 dereferenceable(8) ptr @_ZNKSt5arrayIyLm4EEixEm(ptr noundef nonnull align 8 dereferenceable(32) %6, i64 noundef %7) #7
  %9 = load i64, ptr %8, align 8
  %10 = call noundef i32 @_ZL5ctz64y(i64 noundef %9)
  %11 = zext i32 %10 to i64
  ret i64 %11
}

; Function Attrs: mustprogress nounwind uwtable
define linkonce_odr dso_local noundef nonnull align 8 dereferenceable(8) ptr @_ZNKSt5arrayIyLm4EEixEm(ptr noundef nonnull align 8 dereferenceable(32) %0, i64 noundef %1) #5 comdat align 2 {
  %3 = alloca ptr, align 8
  %4 = alloca i64, align 8
  store ptr %0, ptr %3, align 8
  store i64 %1, ptr %4, align 8
  %5 = load ptr, ptr %3, align 8
  %6 = getelementptr inbounds nuw %"struct.std::array", ptr %5, i32 0, i32 0
  %7 = load i64, ptr %4, align 8
  %8 = call noundef nonnull align 8 dereferenceable(8) ptr @_ZNSt14__array_traitsIyLm4EE6_S_refERA4_Kym(ptr noundef nonnull align 8 dereferenceable(32) %6, i64 noundef %7) #7
  ret ptr %8
}

; Function Attrs: mustprogress nounwind willreturn memory(none) uwtable
define linkonce_odr dso_local noundef i64 @_ZNKSt5arrayIyLm4EE4sizeEv(ptr noundef nonnull align 8 dereferenceable(32) %0) #4 comdat align 2 {
  %2 = alloca ptr, align 8
  store ptr %0, ptr %2, align 8
  ret i64 4
}

; Function Attrs: mustprogress uwtable
define linkonce_odr hidden noundef i64 @_ZNK3ue28bitfieldILm256EE9find_nextEm(ptr noundef nonnull align 8 dereferenceable(32) %0, i64 noundef %1) #0 comdat align 2 {
  %3 = alloca i64, align 8
  %4 = alloca ptr, align 8
  %5 = alloca i64, align 8
  %6 = alloca i64, align 8
  %7 = alloca i64, align 8
  %8 = alloca i32, align 4
  store ptr %0, ptr %4, align 8
  store i64 %1, ptr %5, align 8
  %9 = load ptr, ptr %4, align 8
  %10 = load i64, ptr %5, align 8
  %11 = call noundef i64 @_ZN3ue28bitfieldILm256EE4sizeEv()
  %12 = icmp uge i64 %10, %11
  br i1 %12, label %13, label %14

13:                                               ; preds = %2
  store i64 256, ptr %3, align 8
  br label %67

14:                                               ; preds = %2
  call void @llvm.lifetime.start.p0(i64 8, ptr %6) #7
  %15 = load i64, ptr %5, align 8
  %16 = call noundef i64 @_ZN3ue28bitfieldILm256EE7getwordEm(i64 noundef %15)
  store i64 %16, ptr %6, align 8
  call void @llvm.lifetime.start.p0(i64 8, ptr %7) #7
  %17 = getelementptr inbounds nuw %"class.ue2::bitfield", ptr %9, i32 0, i32 0
  %18 = load i64, ptr %6, align 8
  %19 = call noundef nonnull align 8 dereferenceable(8) ptr @_ZNKSt5arrayIyLm4EEixEm(ptr noundef nonnull align 8 dereferenceable(32) %17, i64 noundef %18) #7
  %20 = load i64, ptr %19, align 8
  store i64 %20, ptr %7, align 8
  %21 = load i64, ptr %5, align 8
  %22 = urem i64 %21, 64
  %23 = icmp ne i64 %22, 63
  br i1 %23, label %24, label %41

24:                                               ; preds = %14
  %25 = load i64, ptr %5, align 8
  %26 = urem i64 %25, 64
  %27 = add i64 %26, 1
  %28 = shl i64 -1, %27
  %29 = load i64, ptr %7, align 8
  %30 = and i64 %29, %28
  store i64 %30, ptr %7, align 8
  %31 = load i64, ptr %7, align 8
  %32 = icmp ne i64 %31, 0
  br i1 %32, label %33, label %40

33:                                               ; preds = %24
  %34 = load i64, ptr %6, align 8
  %35 = mul i64 %34, 64
  %36 = load i64, ptr %7, align 8
  %37 = call noundef i32 @_ZL5ctz64y(i64 noundef %36)
  %38 = zext i32 %37 to i64
  %39 = add i64 %35, %38
  store i64 %39, ptr %3, align 8
  store i32 1, ptr %8, align 4
  br label %66

40:                                               ; preds = %24
  br label %41

41:                                               ; preds = %40, %14
  %42 = load i64, ptr %6, align 8
  %43 = add i64 %42, 1
  store i64 %43, ptr %6, align 8
  br label %44

44:                                               ; preds = %62, %41
  %45 = load i64, ptr %6, align 8
  %46 = getelementptr inbounds nuw %"class.ue2::bitfield", ptr %9, i32 0, i32 0
  %47 = call noundef i64 @_ZNKSt5arrayIyLm4EE4sizeEv(ptr noundef nonnull align 8 dereferenceable(32) %46) #9
  %48 = icmp ult i64 %45, %47
  br i1 %48, label %49, label %65

49:                                               ; preds = %44
  %50 = getelementptr inbounds nuw %"class.ue2::bitfield", ptr %9, i32 0, i32 0
  %51 = load i64, ptr %6, align 8
  %52 = call noundef nonnull align 8 dereferenceable(8) ptr @_ZNKSt5arrayIyLm4EEixEm(ptr noundef nonnull align 8 dereferenceable(32) %50, i64 noundef %51) #7
  %53 = load i64, ptr %52, align 8
  %54 = icmp ne i64 %53, 0
  br i1 %54, label %55, label %61

55:                                               ; preds = %49
  %56 = load i64, ptr %6, align 8
  %57 = mul i64 %56, 64
  %58 = load i64, ptr %6, align 8
  %59 = call noundef i64 @_ZNK3ue28bitfieldILm256EE8word_ctzEm(ptr noundef nonnull align 8 dereferenceable(32) %9, i64 noundef %58)
  %60 = add i64 %57, %59
  store i64 %60, ptr %3, align 8
  store i32 1, ptr %8, align 4
  br label %66

61:                                               ; preds = %49
  br label %62

62:                                               ; preds = %61
  %63 = load i64, ptr %6, align 8
  %64 = add i64 %63, 1
  store i64 %64, ptr %6, align 8
  br label %44, !llvm.loop !12

65:                                               ; preds = %44
  store i64 256, ptr %3, align 8
  store i32 1, ptr %8, align 4
  br label %66

66:                                               ; preds = %65, %55, %33
  call void @llvm.lifetime.end.p0(i64 8, ptr %7) #7
  call void @llvm.lifetime.end.p0(i64 8, ptr %6) #7
  br label %67

67:                                               ; preds = %66, %13
  %68 = load i64, ptr %3, align 8
  ret i64 %68
}

; Function Attrs: mustprogress uwtable
define linkonce_odr hidden noundef i64 @_ZNK3ue28bitfieldILm256EE10find_firstEv(ptr noundef nonnull align 8 dereferenceable(32) %0) #0 comdat align 2 {
  %2 = alloca i64, align 8
  %3 = alloca ptr, align 8
  %4 = alloca i64, align 8
  %5 = alloca i32, align 4
  store ptr %0, ptr %3, align 8
  %6 = load ptr, ptr %3, align 8
  call void @llvm.lifetime.start.p0(i64 8, ptr %4) #7
  store i64 0, ptr %4, align 8
  br label %7

7:                                                ; preds = %26, %1
  %8 = load i64, ptr %4, align 8
  %9 = getelementptr inbounds nuw %"class.ue2::bitfield", ptr %6, i32 0, i32 0
  %10 = call noundef i64 @_ZNKSt5arrayIyLm4EE4sizeEv(ptr noundef nonnull align 8 dereferenceable(32) %9) #9
  %11 = icmp ult i64 %8, %10
  br i1 %11, label %13, label %12

12:                                               ; preds = %7
  store i32 2, ptr %5, align 4
  br label %29

13:                                               ; preds = %7
  %14 = getelementptr inbounds nuw %"class.ue2::bitfield", ptr %6, i32 0, i32 0
  %15 = load i64, ptr %4, align 8
  %16 = call noundef nonnull align 8 dereferenceable(8) ptr @_ZNKSt5arrayIyLm4EEixEm(ptr noundef nonnull align 8 dereferenceable(32) %14, i64 noundef %15) #7
  %17 = load i64, ptr %16, align 8
  %18 = icmp ne i64 %17, 0
  br i1 %18, label %19, label %25

19:                                               ; preds = %13
  %20 = load i64, ptr %4, align 8
  %21 = mul i64 %20, 64
  %22 = load i64, ptr %4, align 8
  %23 = call noundef i64 @_ZNK3ue28bitfieldILm256EE8word_ctzEm(ptr noundef nonnull align 8 dereferenceable(32) %6, i64 noundef %22)
  %24 = add i64 %21, %23
  store i64 %24, ptr %2, align 8
  store i32 1, ptr %5, align 4
  br label %29

25:                                               ; preds = %13
  br label %26

26:                                               ; preds = %25
  %27 = load i64, ptr %4, align 8
  %28 = add i64 %27, 1
  store i64 %28, ptr %4, align 8
  br label %7, !llvm.loop !11

29:                                               ; preds = %19, %12
  call void @llvm.lifetime.end.p0(i64 8, ptr %4) #7
  %30 = load i32, ptr %5, align 4
  switch i32 %30, label %34 [
    i32 2, label %31
    i32 1, label %32
  ]

31:                                               ; preds = %29
  store i64 256, ptr %2, align 8
  br label %32

32:                                               ; preds = %31, %29
  %33 = load i64, ptr %2, align 8
  ret i64 %33

34:                                               ; preds = %29
  unreachable
}

; Function Attrs: mustprogress uwtable
define linkonce_odr hidden noundef i64 @_ZNK3ue29CharReach9find_nextEm(ptr noundef nonnull align 8 dereferenceable(32) %0, i64 noundef %1) #0 comdat align 2 {
  %3 = alloca ptr, align 8
  %4 = alloca i64, align 8
  store ptr %0, ptr %3, align 8
  store i64 %1, ptr %4, align 8
  %5 = load ptr, ptr %3, align 8
  %6 = getelementptr inbounds nuw %"class.ue2::CharReach", ptr %5, i32 0, i32 0
  %7 = load i64, ptr %4, align 8
  %8 = call noundef i64 @_ZNK3ue28bitfieldILm256EE9find_nextEm(ptr noundef nonnull align 8 dereferenceable(32) %6, i64 noundef %7)
  ret i64 %8
}

; Function Attrs: mustprogress uwtable
define linkonce_odr hidden noundef i64 @_ZNK3ue29CharReach10find_firstEv(ptr noundef nonnull align 8 dereferenceable(32) %0) #0 comdat align 2 {
  %2 = alloca ptr, align 8
  store ptr %0, ptr %2, align 8
  %3 = load ptr, ptr %2, align 8
  %4 = getelementptr inbounds nuw %"class.ue2::CharReach", ptr %3, i32 0, i32 0
  %5 = call noundef i64 @_ZNK3ue28bitfieldILm256EE10find_firstEv(ptr noundef nonnull align 8 dereferenceable(32) %4)
  ret i64 %5
}

; Function Attrs: mustprogress uwtable
define hidden void @_ZN3ue217truffleBuildMasksERKNS_9CharReachEPhS3_(ptr noundef nonnull align 8 dereferenceable(32) %0, ptr noundef %1, ptr noundef %2) #0 {
  %4 = alloca ptr, align 8
  %5 = alloca ptr, align 8
  %6 = alloca ptr, align 8
  %7 = alloca i64, align 8
  %8 = alloca ptr, align 8
  %9 = alloca i8, align 1
  %10 = alloca i8, align 1
  store ptr %0, ptr %4, align 8
  store ptr %1, ptr %5, align 8
  store ptr %2, ptr %6, align 8
  %11 = load ptr, ptr %6, align 8
  call void @llvm.memset.p0.i64(ptr align 1 %11, i8 0, i64 16, i1 false)
  %12 = load ptr, ptr %5, align 8
  call void @llvm.memset.p0.i64(ptr align 1 %12, i8 0, i64 16, i1 false)
  call void @llvm.lifetime.start.p0(i64 8, ptr %7) #7
  %13 = load ptr, ptr %4, align 8
  %14 = call noundef i64 @_ZNK3ue29CharReach10find_firstEv(ptr noundef nonnull align 8 dereferenceable(32) %13)
  store i64 %14, ptr %7, align 8
  br label %15

15:                                               ; preds = %50, %3
  %16 = load i64, ptr %7, align 8
  %17 = icmp ne i64 %16, 256
  br i1 %17, label %19, label %18

18:                                               ; preds = %15
  call void @llvm.lifetime.end.p0(i64 8, ptr %7) #7
  br label %54

19:                                               ; preds = %15
  br label %20

20:                                               ; preds = %19
  br label %21

21:                                               ; preds = %20
  br label %22

22:                                               ; preds = %21
  call void @llvm.lifetime.start.p0(i64 8, ptr %8) #7
  %23 = load i64, ptr %7, align 8
  %24 = and i64 %23, 128
  %25 = icmp ne i64 %24, 0
  br i1 %25, label %26, label %28

26:                                               ; preds = %22
  %27 = load ptr, ptr %6, align 8
  br label %30

28:                                               ; preds = %22
  %29 = load ptr, ptr %5, align 8
  br label %30

30:                                               ; preds = %28, %26
  %31 = phi ptr [ %27, %26 ], [ %29, %28 ]
  store ptr %31, ptr %8, align 8
  call void @llvm.lifetime.start.p0(i64 1, ptr %9) #7
  %32 = load i64, ptr %7, align 8
  %33 = and i64 %32, 15
  %34 = trunc i64 %33 to i8
  store i8 %34, ptr %9, align 1
  call void @llvm.lifetime.start.p0(i64 1, ptr %10) #7
  %35 = load i64, ptr %7, align 8
  %36 = and i64 %35, 112
  %37 = lshr i64 %36, 4
  %38 = trunc i64 %37 to i8
  store i8 %38, ptr %10, align 1
  %39 = load i8, ptr %10, align 1
  %40 = zext i8 %39 to i32
  %41 = shl i32 1, %40
  %42 = load ptr, ptr %8, align 8
  %43 = load i8, ptr %9, align 1
  %44 = zext i8 %43 to i64
  %45 = getelementptr inbounds nuw i8, ptr %42, i64 %44
  %46 = load i8, ptr %45, align 1
  %47 = zext i8 %46 to i32
  %48 = or i32 %47, %41
  %49 = trunc i32 %48 to i8
  store i8 %49, ptr %45, align 1
  call void @llvm.lifetime.end.p0(i64 1, ptr %10) #7
  call void @llvm.lifetime.end.p0(i64 1, ptr %9) #7
  call void @llvm.lifetime.end.p0(i64 8, ptr %8) #7
  br label %50

50:                                               ; preds = %30
  %51 = load ptr, ptr %4, align 8
  %52 = load i64, ptr %7, align 8
  %53 = call noundef i64 @_ZNK3ue29CharReach9find_nextEm(ptr noundef nonnull align 8 dereferenceable(32) %51, i64 noundef %52)
  store i64 %53, ptr %7, align 8
  br label %15, !llvm.loop !5

54:                                               ; preds = %18
  ret void
}