; Function Attrs: mustprogress nofree norecurse nosync nounwind memory(readwrite, inaccessiblemem: none) uwtable
define hidden void @_ZN3ue217truffleBuildMasksERKNS_9CharReachEPhS3_(ptr noundef nonnull readonly align 8 captures(none) dereferenceable(32) %0, ptr noundef captures(none) initializes((0, 16)) %1, ptr noundef captures(none) initializes((0, 16)) %2) local_unnamed_addr #0 {
  tail call void @llvm.memset.p0.i64(ptr noundef nonnull align 1 dereferenceable(16) %2, i8 0, i64 16, i1 false)
  tail call void @llvm.memset.p0.i64(ptr noundef nonnull align 1 dereferenceable(16) %1, i8 0, i64 16, i1 false)
  br label %4

4:                                                ; preds = %7, %3
  %.0710.i.i = phi i64 [ 0, %3 ], [ %8, %7 ]
  %5 = getelementptr inbounds nuw [4 x i64], ptr %0, i64 0, i64 %.0710.i.i
  %6 = load i64, ptr %5, align 8
  %.not.i.i = icmp eq i64 %6, 0
  br i1 %.not.i.i, label %7, label %_ZNK3ue29CharReach10find_firstEv.exit

7:                                                ; preds = %4
  %8 = add nuw nsw i64 %.0710.i.i, 1
  %exitcond.i.i = icmp eq i64 %8, 4
  br i1 %exitcond.i.i, label %._crit_edge, label %4, !llvm.loop !5

_ZNK3ue29CharReach10find_firstEv.exit:            ; preds = %4
  %9 = shl nuw nsw i64 %.0710.i.i, 6
  %10 = tail call noundef range(i64 0, 65) i64 @llvm.cttz.i64(i64 %6, i1 true)
  %11 = or disjoint i64 %10, %9
  %.not18 = icmp eq i64 %11, 256
  br i1 %.not18, label %._crit_edge, label %.lr.ph.preheader

.lr.ph.preheader:                                 ; preds = %_ZNK3ue29CharReach10find_firstEv.exit
  %12 = and i64 %.0710.i.i, 2
  %.not1339 = icmp eq i64 %12, 0
  %13 = select i1 %.not1339, ptr %1, ptr %2
  %14 = and i64 %10, 15
  %15 = trunc i64 %11 to i32
  %16 = lshr i32 %15, 4
  %17 = and i32 %16, 7
  %18 = shl nuw nsw i32 1, %17
  %19 = getelementptr inbounds nuw i8, ptr %13, i64 %14
  %20 = load i8, ptr %19, align 1
  %21 = trunc nuw i32 %18 to i8
  %22 = or i8 %20, %21
  store i8 %22, ptr %19, align 1
  %.not.i.i1440 = icmp samesign ult i64 %.0710.i.i, 4
  br i1 %.not.i.i1440, label %.lr.ph42, label %._crit_edge

._crit_edge:                                      ; preds = %7, %_ZNK3ue29CharReach9find_nextEm.exit, %32, %.lr.ph.preheader, %_ZNK3ue29CharReach10find_firstEv.exit
  ret void

.lr.ph42:                                         ; preds = %.lr.ph.preheader, %_ZNK3ue29CharReach9find_nextEm.exit
  %.01941 = phi i64 [ %40, %_ZNK3ue29CharReach9find_nextEm.exit ], [ %11, %.lr.ph.preheader ]
  %23 = lshr i64 %.01941, 6
  %24 = and i64 %.01941, 63
  %.not20.i.i = icmp eq i64 %24, 63
  br i1 %.not20.i.i, label %.preheader, label %25

.preheader:                                       ; preds = %25, %.lr.ph42
  br label %32

25:                                               ; preds = %.lr.ph42
  %26 = getelementptr inbounds nuw [4 x i64], ptr %0, i64 0, i64 %23
  %27 = load i64, ptr %26, align 8
  %28 = shl nsw i64 -2, %24
  %29 = and i64 %27, %28
  %.not21.i.i = icmp eq i64 %29, 0
  br i1 %.not21.i.i, label %.preheader, label %30

30:                                               ; preds = %25
  %31 = and i64 %.01941, 192
  br label %_ZNK3ue29CharReach9find_nextEm.exit

32:                                               ; preds = %.preheader, %34
  %.0.in.i.i = phi i64 [ %.0.i.i, %34 ], [ %23, %.preheader ]
  %33 = icmp samesign ult i64 %.0.in.i.i, 3
  br i1 %33, label %34, label %._crit_edge

34:                                               ; preds = %32
  %.0.i.i = add nuw nsw i64 %.0.in.i.i, 1
  %35 = getelementptr inbounds nuw [4 x i64], ptr %0, i64 0, i64 %.0.i.i
  %36 = load i64, ptr %35, align 8
  %.not22.i.i = icmp eq i64 %36, 0
  br i1 %.not22.i.i, label %32, label %37, !llvm.loop !7

37:                                               ; preds = %34
  %38 = shl nuw nsw i64 %.0.i.i, 6
  br label %_ZNK3ue29CharReach9find_nextEm.exit

_ZNK3ue29CharReach9find_nextEm.exit:              ; preds = %30, %37
  %.sink33 = phi i64 [ %29, %30 ], [ %36, %37 ]
  %.sink32 = phi i64 [ %31, %30 ], [ %38, %37 ]
  %39 = tail call range(i64 0, 65) i64 @llvm.cttz.i64(i64 %.sink33, i1 true)
  %40 = or disjoint i64 %39, %.sink32
  %41 = and i64 %.sink32, 128
  %.not13 = icmp eq i64 %41, 0
  %42 = select i1 %.not13, ptr %1, ptr %2
  %43 = and i64 %39, 15
  %44 = trunc i64 %40 to i32
  %45 = lshr i32 %44, 4
  %46 = and i32 %45, 7
  %47 = shl nuw nsw i32 1, %46
  %48 = getelementptr inbounds nuw i8, ptr %42, i64 %43
  %49 = load i8, ptr %48, align 1
  %50 = trunc nuw i32 %47 to i8
  %51 = or i8 %49, %50
  store i8 %51, ptr %48, align 1
  %.not.i.i14 = icmp samesign ult i64 %.sink32, 256
  br i1 %.not.i.i14, label %.lr.ph42, label %._crit_edge, !llvm.loop !8
}